target datalayout = "e-m:e-p270:32:32-p271:32:32-p272:64:64-i64:64-i128:128-f80:128-n8:16:32:64-S128"
target triple = "x86_64-pc-linux-gnu"

%"class.icu_77::FieldPositionHandler.base" = type <{ ptr, i32 }>
%"class.icu_77::FieldPositionIteratorHandler" = type { %"class.icu_77::FieldPositionHandler.base", ptr, ptr, i32, i32 }

; Function Attrs: mustprogress nounwind uwtable
define void @_ZN6icu_7720FieldPositionHandlerD2Ev(ptr noundef nonnull align 8 dereferenceable(12) %0) unnamed_addr #0 align 2 {
  %2 = alloca ptr, align 8
  store ptr %0, ptr %2, align 8, !tbaa !3
  ret void
}

; Function Attrs: mustprogress nounwind uwtable
define void @_ZN6icu_7728FieldPositionIteratorHandlerD2Ev(ptr noundef nonnull align 8 dereferenceable(40) %0) unnamed_addr #0 align 2 personality ptr @__gxx_personality_v0 {
  %2 = alloca ptr, align 8
  store ptr %0, ptr %2, align 8, !tbaa !28
  %3 = load ptr, ptr %2, align 8
  store ptr getelementptr inbounds inrange(-16, 40) ({ [7 x ptr] }, ptr @_ZTVN6icu_7728FieldPositionIteratorHandlerE, i32 0, i32 0, i32 2), ptr %3, align 8, !tbaa !16
  %4 = getelementptr inbounds nuw %"class.icu_77::FieldPositionIteratorHandler", ptr %3, i32 0, i32 1
  %5 = load ptr, ptr %4, align 8, !tbaa !33
  %6 = icmp ne ptr %5, null
  br i1 %6, label %7, label %14

7:                                                ; preds = %1
  %8 = getelementptr inbounds nuw %"class.icu_77::FieldPositionIteratorHandler", ptr %3, i32 0, i32 1
  %9 = load ptr, ptr %8, align 8, !tbaa !33
  %10 = getelementptr inbounds nuw %"class.icu_77::FieldPositionIteratorHandler", ptr %3, i32 0, i32 2
  %11 = load ptr, ptr %10, align 8, !tbaa !38
  %12 = getelementptr inbounds nuw %"class.icu_77::FieldPositionIteratorHandler", ptr %3, i32 0, i32 3
  invoke void @_ZN6icu_7721FieldPositionIterator7setDataEPNS_9UVector32ER10UErrorCode(ptr noundef nonnull align 8 dereferenceable(20) %9, ptr noundef %11, ptr noundef nonnull align 4 dereferenceable(4) %12)
          to label %13 unwind label %16

13:                                               ; preds = %7
  br label %14

14:                                               ; preds = %13, %1
  %15 = getelementptr inbounds nuw %"class.icu_77::FieldPositionIteratorHandler", ptr %3, i32 0, i32 2
  store ptr null, ptr %15, align 8, !tbaa !38
  call void @_ZN6icu_7720FieldPositionHandlerD2Ev(ptr noundef nonnull align 8 dereferenceable(12) %3) #10
  ret void

16:                                               ; preds = %7
  %17 = landingpad { ptr, i32 }
          catch ptr null
  %18 = extractvalue { ptr, i32 } %17, 0
  call void @__clang_call_terminate(ptr %18) #9
  unreachable
}