; Function Attrs: mustprogress nounwind uwtable
define void @_ZN6icu_7728FieldPositionIteratorHandlerD2Ev(ptr noundef nonnull align 8 dereferenceable(40) initializes((0, 8)) %0) unnamed_addr #4 align 2 personality ptr @__gxx_personality_v0 {
  store ptr getelementptr inbounds nuw inrange(-16, 40) (i8, ptr @_ZTVN6icu_7728FieldPositionIteratorHandlerE, i64 16), ptr %0, align 8, !tbaa !8
  %2 = getelementptr inbounds nuw i8, ptr %0, i64 16
  %3 = load ptr, ptr %2, align 8, !tbaa !22
  %.not = icmp eq ptr %3, null
  br i1 %.not, label %8, label %4

4:                                                ; preds = %1
  %5 = getelementptr inbounds nuw i8, ptr %0, i64 24
  %6 = load ptr, ptr %5, align 8, !tbaa !28
  %7 = getelementptr inbounds nuw i8, ptr %0, i64 32
  invoke void @_ZN6icu_7721FieldPositionIterator7setDataEPNS_9UVector32ER10UErrorCode(ptr noundef nonnull align 8 dereferenceable(20) %3, ptr noundef %6, ptr noundef nonnull align 4 dereferenceable(4) %7)
          to label %8 unwind label %10

8:                                                ; preds = %4, %1
  %9 = getelementptr inbounds nuw i8, ptr %0, i64 24
  store ptr null, ptr %9, align 8, !tbaa !28
  ret void

10:                                               ; preds = %4
  %11 = landingpad { ptr, i32 }
          catch ptr null
  %12 = extractvalue { ptr, i32 } %11, 0
  tail call void @__clang_call_terminate(ptr %12) #14
  unreachable
}